; Function Attrs: nounwind uwtable
define dso_local void @pgstat_archiver_reset_all_cb(i64 noundef %0) local_unnamed_addr #0 {
  %2 = load ptr, ptr @pgStatLocal, align 8
  %3 = getelementptr inbounds nuw i8, ptr %2, i64 32
  %4 = tail call zeroext i1 @LWLockAcquire(ptr noundef nonnull %3, i32 noundef 0) #3
  %5 = getelementptr inbounds nuw i8, ptr %2, i64 192
  %6 = getelementptr inbounds nuw i8, ptr %2, i64 56
  %7 = getelementptr inbounds nuw i8, ptr %2, i64 48
  br label %pgstat_end_changecount_read.exit.i

pgstat_end_changecount_read.exit.i:               ; preds = %pgstat_end_changecount_read.exit.i.backedge, %1
  %8 = load i32, ptr %7, align 4
  %9 = load volatile i32, ptr @InterruptPending, align 4
  %.not.i.i = icmp eq i32 %9, 0
  br i1 %.not.i.i, label %pgstat_begin_changecount_read.exit.i, label %10, !prof !6

10:                                               ; preds = %pgstat_end_changecount_read.exit.i
  tail call void @ProcessInterrupts() #3
  br label %pgstat_begin_changecount_read.exit.i

pgstat_begin_changecount_read.exit.i:             ; preds = %10, %pgstat_end_changecount_read.exit.i
  tail call void asm sideeffect "", "~{memory},~{dirflag},~{fpsr},~{flags}"() #3, !srcloc !7
  tail call void @llvm.memcpy.p0.p0.i64(ptr noundef nonnull align 1 dereferenceable(136) %5, ptr noundef nonnull readonly align 1 dereferenceable(136) %6, i64 136, i1 false)
  tail call void asm sideeffect "", "~{memory},~{dirflag},~{fpsr},~{flags}"() #3, !srcloc !8
  %11 = and i32 %8, 1
  %.not.i5.i = icmp eq i32 %11, 0
  br i1 %.not.i5.i, label %12, label %pgstat_end_changecount_read.exit.i.backedge

12:                                               ; preds = %pgstat_begin_changecount_read.exit.i
  %13 = load i32, ptr %7, align 4
  %14 = icmp eq i32 %8, %13
  br i1 %14, label %pgstat_copy_changecounted_stats.exit, label %pgstat_end_changecount_read.exit.i.backedge

pgstat_end_changecount_read.exit.i.backedge:      ; preds = %12, %pgstat_begin_changecount_read.exit.i
  br label %pgstat_end_changecount_read.exit.i, !llvm.loop !9

pgstat_copy_changecounted_stats.exit:             ; preds = %12
  %15 = getelementptr inbounds nuw i8, ptr %2, i64 184
  store i64 %0, ptr %15, align 8
  tail call void @LWLockRelease(ptr noundef nonnull %3) #3
  ret void
}